(i__main__
Tree
p0
(dp1
S'_root'
p2
(i__main__
Node
p3
(dp4
S'_subNodes'
p5
(lp6
(i__main__
Node
p7
(dp8
g5
(lp9
(i__main__
Node
p10
(dp11
g5
(lp12
(i__main__
Node
p13
(dp14
g5
(lp15
(i__main__
Node
p16
(dp17
g5
(lp18
(i__main__
Node
p19
(dp20
g5
(lp21
(i__main__
Node
p22
(dp23
g5
(lp24
(i__main__
Node
p25
(dp26
g5
Nsba(i__main__
Node
p27
(dp28
g5
Nsba(i__main__
Node
p29
(dp30
g5
Nsba(i__main__
Node
p31
(dp32
g5
Nsbasba(i__main__
Node
p33
(dp34
g5
(lp35
(i__main__
Node
p36
(dp37
g5
Nsba(i__main__
Node
p38
(dp39
g5
Nsba(i__main__
Node
p40
(dp41
g5
Nsba(i__main__
Node
p42
(dp43
g5
Nsbasba(i__main__
Node
p44
(dp45
g5
(lp46
(i__main__
Node
p47
(dp48
g5
Nsba(i__main__
Node
p49
(dp50
g5
Nsba(i__main__
Node
p51
(dp52
g5
Nsba(i__main__
Node
p53
(dp54
g5
Nsbasba(i__main__
Node
p55
(dp56
g5
(lp57
(i__main__
Node
p58
(dp59
g5
Nsba(i__main__
Node
p60
(dp61
g5
Nsba(i__main__
Node
p62
(dp63
g5
Nsba(i__main__
Node
p64
(dp65
g5
Nsbasbasba(i__main__
Node
p66
(dp67
g5
(lp68
(i__main__
Node
p69
(dp70
g5
(lp71
(i__main__
Node
p72
(dp73
g5
Nsba(i__main__
Node
p74
(dp75
g5
Nsba(i__main__
Node
p76
(dp77
g5
(lp78
(i__main__
Node
p79
(dp80
g5
Nsba(i__main__
Node
p81
(dp82
g5
Nsba(i__main__
Node
p83
(dp84
g5
Nsba(i__main__
Node
p85
(dp86
g5
(lp87
(i__main__
Node
p88
(dp89
g5
Nsba(i__main__
Node
p90
(dp91
g5
Nsba(i__main__
Node
p92
(dp93
g5
Nsba(i__main__
Node
p94
(dp95
g5
Nsbasbasba(i__main__
Node
p96
(dp97
g5
Nsbasba(i__main__
Node
p98
(dp99
g5
(lp100
(i__main__
Node
p101
(dp102
g5
Nsba(i__main__
Node
p103
(dp104
g5
Nsba(i__main__
Node
p105
(dp106
g5
Nsba(i__main__
Node
p107
(dp108
g5
Nsbasba(i__main__
Node
p109
(dp110
g5
(lp111
(i__main__
Node
p112
(dp113
g5
Nsba(i__main__
Node
p114
(dp115
g5
Nsba(i__main__
Node
p116
(dp117
g5
Nsba(i__main__
Node
p118
(dp119
g5
Nsbasba(i__main__
Node
p120
(dp121
g5
(lp122
(i__main__
Node
p123
(dp124
g5
Nsba(i__main__
Node
p125
(dp126
g5
Nsba(i__main__
Node
p127
(dp128
g5
Nsba(i__main__
Node
p129
(dp130
g5
Nsbasbasba(i__main__
Node
p131
(dp132
g5
(lp133
(i__main__
Node
p134
(dp135
g5
(lp136
(i__main__
Node
p137
(dp138
g5
Nsba(i__main__
Node
p139
(dp140
g5
Nsba(i__main__
Node
p141
(dp142
g5
Nsba(i__main__
Node
p143
(dp144
g5
Nsbasba(i__main__
Node
p145
(dp146
g5
(lp147
(i__main__
Node
p148
(dp149
g5
Nsba(i__main__
Node
p150
(dp151
g5
Nsba(i__main__
Node
p152
(dp153
g5
Nsba(i__main__
Node
p154
(dp155
g5
Nsbasba(i__main__
Node
p156
(dp157
g5
(lp158
(i__main__
Node
p159
(dp160
g5
Nsba(i__main__
Node
p161
(dp162
g5
Nsba(i__main__
Node
p163
(dp164
g5
Nsba(i__main__
Node
p165
(dp166
g5
Nsbasba(i__main__
Node
p167
(dp168
g5
(lp169
(i__main__
Node
p170
(dp171
g5
Nsba(i__main__
Node
p172
(dp173
g5
Nsba(i__main__
Node
p174
(dp175
g5
Nsba(i__main__
Node
p176
(dp177
g5
Nsbasbasba(i__main__
Node
p178
(dp179
g5
(lp180
(i__main__
Node
p181
(dp182
g5
(lp183
(i__main__
Node
p184
(dp185
g5
Nsba(i__main__
Node
p186
(dp187
g5
Nsba(i__main__
Node
p188
(dp189
g5
(lp190
(i__main__
Node
p191
(dp192
g5
Nsba(i__main__
Node
p193
(dp194
g5
Nsba(i__main__
Node
p195
(dp196
g5
Nsba(i__main__
Node
p197
(dp198
g5
Nsbasba(i__main__
Node
p199
(dp200
g5
Nsbasba(i__main__
Node
p201
(dp202
g5
(lp203
(i__main__
Node
p204
(dp205
g5
Nsba(i__main__
Node
p206
(dp207
g5
Nsba(i__main__
Node
p208
(dp209
g5
(lp210
(i__main__
Node
p211
(dp212
g5
Nsba(i__main__
Node
p213
(dp214
g5
Nsba(i__main__
Node
p215
(dp216
g5
Nsba(i__main__
Node
p217
(dp218
g5
Nsbasba(i__main__
Node
p219
(dp220
g5
Nsbasba(i__main__
Node
p221
(dp222
g5
(lp223
(i__main__
Node
p224
(dp225
g5
Nsba(i__main__
Node
p226
(dp227
g5
Nsba(i__main__
Node
p228
(dp229
g5
Nsba(i__main__
Node
p230
(dp231
g5
Nsbasba(i__main__
Node
p232
(dp233
g5
(lp234
(i__main__
Node
p235
(dp236
g5
Nsba(i__main__
Node
p237
(dp238
g5
Nsba(i__main__
Node
p239
(dp240
g5
Nsba(i__main__
Node
p241
(dp242
g5
Nsbasbasbasba(i__main__
Node
p243
(dp244
g5
(lp245
(i__main__
Node
p246
(dp247
g5
(lp248
(i__main__
Node
p249
(dp250
g5
(lp251
(i__main__
Node
p252
(dp253
g5
Nsba(i__main__
Node
p254
(dp255
g5
Nsba(i__main__
Node
p256
(dp257
g5
Nsba(i__main__
Node
p258
(dp259
g5
(lp260
(i__main__
Node
p261
(dp262
g5
Nsba(i__main__
Node
p263
(dp264
g5
Nsba(i__main__
Node
p265
(dp266
g5
Nsba(i__main__
Node
p267
(dp268
g5
Nsbasbasba(i__main__
Node
p269
(dp270
g5
(lp271
(i__main__
Node
p272
(dp273
g5
Nsba(i__main__
Node
p274
(dp275
g5
Nsba(i__main__
Node
p276
(dp277
g5
Nsba(i__main__
Node
p278
(dp279
g5
Nsbasba(i__main__
Node
p280
(dp281
g5
(lp282
(i__main__
Node
p283
(dp284
g5
Nsba(i__main__
Node
p285
(dp286
g5
Nsba(i__main__
Node
p287
(dp288
g5
Nsba(i__main__
Node
p289
(dp290
g5
Nsbasba(i__main__
Node
p291
(dp292
g5
(lp293
(i__main__
Node
p294
(dp295
g5
Nsba(i__main__
Node
p296
(dp297
g5
Nsba(i__main__
Node
p298
(dp299
g5
Nsba(i__main__
Node
p300
(dp301
g5
Nsbasbasba(i__main__
Node
p302
(dp303
g5
(lp304
(i__main__
Node
p305
(dp306
g5
(lp307
(i__main__
Node
p308
(dp309
g5
Nsba(i__main__
Node
p310
(dp311
g5
Nsba(i__main__
Node
p312
(dp313
g5
(lp314
(i__main__
Node
p315
(dp316
g5
Nsba(i__main__
Node
p317
(dp318
g5
Nsba(i__main__
Node
p319
(dp320
g5
Nsba(i__main__
Node
p321
(dp322
g5
(lp323
(i__main__
Node
p324
(dp325
g5
Nsba(i__main__
Node
p326
(dp327
g5
Nsba(i__main__
Node
p328
(dp329
g5
Nsba(i__main__
Node
p330
(dp331
g5
Nsbasbasba(i__main__
Node
p332
(dp333
g5
Nsbasba(i__main__
Node
p334
(dp335
g5
(lp336
(i__main__
Node
p337
(dp338
g5
Nsba(i__main__
Node
p339
(dp340
g5
Nsba(i__main__
Node
p341
(dp342
g5
Nsba(i__main__
Node
p343
(dp344
g5
Nsbasba(i__main__
Node
p345
(dp346
g5
(lp347
(i__main__
Node
p348
(dp349
g5
Nsba(i__main__
Node
p350
(dp351
g5
Nsba(i__main__
Node
p352
(dp353
g5
Nsba(i__main__
Node
p354
(dp355
g5
(lp356
(i__main__
Node
p357
(dp358
g5
Nsba(i__main__
Node
p359
(dp360
g5
Nsba(i__main__
Node
p361
(dp362
g5
Nsba(i__main__
Node
p363
(dp364
g5
Nsbasbasba(i__main__
Node
p365
(dp366
g5
(lp367
(i__main__
Node
p368
(dp369
g5
Nsba(i__main__
Node
p370
(dp371
g5
Nsba(i__main__
Node
p372
(dp373
g5
Nsba(i__main__
Node
p374
(dp375
g5
Nsbasbasba(i__main__
Node
p376
(dp377
g5
(lp378
(i__main__
Node
p379
(dp380
g5
(lp381
(i__main__
Node
p382
(dp383
g5
Nsba(i__main__
Node
p384
(dp385
g5
Nsba(i__main__
Node
p386
(dp387
g5
Nsba(i__main__
Node
p388
(dp389
g5
Nsbasba(i__main__
Node
p390
(dp391
g5
(lp392
(i__main__
Node
p393
(dp394
g5
Nsba(i__main__
Node
p395
(dp396
g5
Nsba(i__main__
Node
p397
(dp398
g5
Nsba(i__main__
Node
p399
(dp400
g5
Nsbasba(i__main__
Node
p401
(dp402
g5
(lp403
(i__main__
Node
p404
(dp405
g5
Nsba(i__main__
Node
p406
(dp407
g5
Nsba(i__main__
Node
p408
(dp409
g5
Nsba(i__main__
Node
p410
(dp411
g5
Nsbasba(i__main__
Node
p412
(dp413
g5
(lp414
(i__main__
Node
p415
(dp416
g5
Nsba(i__main__
Node
p417
(dp418
g5
Nsba(i__main__
Node
p419
(dp420
g5
Nsba(i__main__
Node
p421
(dp422
g5
Nsbasbasba(i__main__
Node
p423
(dp424
g5
(lp425
(i__main__
Node
p426
(dp427
g5
(lp428
(i__main__
Node
p429
(dp430
g5
(lp431
(i__main__
Node
p432
(dp433
g5
Nsba(i__main__
Node
p434
(dp435
g5
Nsba(i__main__
Node
p436
(dp437
g5
Nsba(i__main__
Node
p438
(dp439
g5
Nsbasba(i__main__
Node
p440
(dp441
g5
Nsba(i__main__
Node
p442
(dp443
g5
Nsba(i__main__
Node
p444
(dp445
g5
Nsbasba(i__main__
Node
p446
(dp447
g5
(lp448
(i__main__
Node
p449
(dp450
g5
Nsba(i__main__
Node
p451
(dp452
g5
Nsba(i__main__
Node
p453
(dp454
g5
Nsba(i__main__
Node
p455
(dp456
g5
Nsbasba(i__main__
Node
p457
(dp458
g5
(lp459
(i__main__
Node
p460
(dp461
g5
Nsba(i__main__
Node
p462
(dp463
g5
Nsba(i__main__
Node
p464
(dp465
g5
Nsba(i__main__
Node
p466
(dp467
g5
Nsbasba(i__main__
Node
p468
(dp469
g5
(lp470
(i__main__
Node
p471
(dp472
g5
Nsba(i__main__
Node
p473
(dp474
g5
Nsba(i__main__
Node
p475
(dp476
g5
Nsba(i__main__
Node
p477
(dp478
g5
Nsbasbasbasba(i__main__
Node
p479
(dp480
g5
Nsba(i__main__
Node
p481
(dp482
g5
Nsbasba(i__main__
Node
p483
(dp484
g5
(lp485
(i__main__
Node
p486
(dp487
g5
(lp488
(i__main__
Node
p489
(dp490
g5
(lp491
(i__main__
Node
p492
(dp493
g5
(lp494
(i__main__
Node
p495
(dp496
g5
Nsba(i__main__
Node
p497
(dp498
g5
Nsba(i__main__
Node
p499
(dp500
g5
Nsba(i__main__
Node
p501
(dp502
g5
Nsbasba(i__main__
Node
p503
(dp504
g5
(lp505
(i__main__
Node
p506
(dp507
g5
Nsba(i__main__
Node
p508
(dp509
g5
Nsba(i__main__
Node
p510
(dp511
g5
Nsba(i__main__
Node
p512
(dp513
g5
Nsbasba(i__main__
Node
p514
(dp515
g5
(lp516
(i__main__
Node
p517
(dp518
g5
Nsba(i__main__
Node
p519
(dp520
g5
Nsba(i__main__
Node
p521
(dp522
g5
Nsba(i__main__
Node
p523
(dp524
g5
Nsbasba(i__main__
Node
p525
(dp526
g5
(lp527
(i__main__
Node
p528
(dp529
g5
Nsba(i__main__
Node
p530
(dp531
g5
Nsba(i__main__
Node
p532
(dp533
g5
Nsba(i__main__
Node
p534
(dp535
g5
(lp536
(i__main__
Node
p537
(dp538
g5
Nsba(i__main__
Node
p539
(dp540
g5
Nsba(i__main__
Node
p541
(dp542
g5
Nsba(i__main__
Node
p543
(dp544
g5
Nsbasbasbasba(i__main__
Node
p545
(dp546
g5
(lp547
(i__main__
Node
p548
(dp549
g5
(lp550
(i__main__
Node
p551
(dp552
g5
Nsba(i__main__
Node
p553
(dp554
g5
Nsba(i__main__
Node
p555
(dp556
g5
Nsba(i__main__
Node
p557
(dp558
g5
Nsbasba(i__main__
Node
p559
(dp560
g5
(lp561
(i__main__
Node
p562
(dp563
g5
Nsba(i__main__
Node
p564
(dp565
g5
Nsba(i__main__
Node
p566
(dp567
g5
Nsba(i__main__
Node
p568
(dp569
g5
(lp570
(i__main__
Node
p571
(dp572
g5
Nsba(i__main__
Node
p573
(dp574
g5
Nsba(i__main__
Node
p575
(dp576
g5
Nsba(i__main__
Node
p577
(dp578
g5
Nsbasbasba(i__main__
Node
p579
(dp580
g5
(lp581
(i__main__
Node
p582
(dp583
g5
Nsba(i__main__
Node
p584
(dp585
g5
Nsba(i__main__
Node
p586
(dp587
g5
Nsba(i__main__
Node
p588
(dp589
g5
Nsbasba(i__main__
Node
p590
(dp591
g5
(lp592
(i__main__
Node
p593
(dp594
g5
Nsba(i__main__
Node
p595
(dp596
g5
Nsba(i__main__
Node
p597
(dp598
g5
Nsba(i__main__
Node
p599
(dp600
g5
Nsbasbasba(i__main__
Node
p601
(dp602
g5
(lp603
(i__main__
Node
p604
(dp605
g5
(lp606
(i__main__
Node
p607
(dp608
g5
Nsba(i__main__
Node
p609
(dp610
g5
Nsba(i__main__
Node
p611
(dp612
g5
(lp613
(i__main__
Node
p614
(dp615
g5
Nsba(i__main__
Node
p616
(dp617
g5
Nsba(i__main__
Node
p618
(dp619
g5
(lp620
(i__main__
Node
p621
(dp622
g5
Nsba(i__main__
Node
p623
(dp624
g5
Nsba(i__main__
Node
p625
(dp626
g5
Nsba(i__main__
Node
p627
(dp628
g5
Nsbasba(i__main__
Node
p629
(dp630
g5
Nsbasba(i__main__
Node
p631
(dp632
g5
Nsbasba(i__main__
Node
p633
(dp634
g5
(lp635
(i__main__
Node
p636
(dp637
g5
Nsba(i__main__
Node
p638
(dp639
g5
Nsba(i__main__
Node
p640
(dp641
g5
Nsba(i__main__
Node
p642
(dp643
g5
Nsbasba(i__main__
Node
p644
(dp645
g5
(lp646
(i__main__
Node
p647
(dp648
g5
(lp649
(i__main__
Node
p650
(dp651
g5
Nsba(i__main__
Node
p652
(dp653
g5
Nsba(i__main__
Node
p654
(dp655
g5
Nsba(i__main__
Node
p656
(dp657
g5
Nsbasba(i__main__
Node
p658
(dp659
g5
Nsba(i__main__
Node
p660
(dp661
g5
Nsba(i__main__
Node
p662
(dp663
g5
Nsbasba(i__main__
Node
p664
(dp665
g5
(lp666
(i__main__
Node
p667
(dp668
g5
(lp669
(i__main__
Node
p670
(dp671
g5
Nsba(i__main__
Node
p672
(dp673
g5
Nsba(i__main__
Node
p674
(dp675
g5
Nsba(i__main__
Node
p676
(dp677
g5
Nsbasba(i__main__
Node
p678
(dp679
g5
Nsba(i__main__
Node
p680
(dp681
g5
Nsba(i__main__
Node
p682
(dp683
g5
Nsbasbasba(i__main__
Node
p684
(dp685
g5
(lp686
(i__main__
Node
p687
(dp688
g5
(lp689
(i__main__
Node
p690
(dp691
g5
Nsba(i__main__
Node
p692
(dp693
g5
Nsba(i__main__
Node
p694
(dp695
g5
(lp696
(i__main__
Node
p697
(dp698
g5
Nsba(i__main__
Node
p699
(dp700
g5
Nsba(i__main__
Node
p701
(dp702
g5
Nsba(i__main__
Node
p703
(dp704
g5
Nsbasba(i__main__
Node
p705
(dp706
g5
Nsbasba(i__main__
Node
p707
(dp708
g5
(lp709
(i__main__
Node
p710
(dp711
g5
(lp712
(i__main__
Node
p713
(dp714
g5
Nsba(i__main__
Node
p715
(dp716
g5
Nsba(i__main__
Node
p717
(dp718
g5
Nsba(i__main__
Node
p719
(dp720
g5
Nsbasba(i__main__
Node
p721
(dp722
g5
Nsba(i__main__
Node
p723
(dp724
g5
Nsba(i__main__
Node
p725
(dp726
g5
Nsbasba(i__main__
Node
p727
(dp728
g5
(lp729
(i__main__
Node
p730
(dp731
g5
Nsba(i__main__
Node
p732
(dp733
g5
Nsba(i__main__
Node
p734
(dp735
g5
Nsba(i__main__
Node
p736
(dp737
g5
Nsbasba(i__main__
Node
p738
(dp739
g5
(lp740
(i__main__
Node
p741
(dp742
g5
Nsba(i__main__
Node
p743
(dp744
g5
Nsba(i__main__
Node
p745
(dp746
g5
Nsba(i__main__
Node
p747
(dp748
g5
Nsbasbasbasba(i__main__
Node
p749
(dp750
g5
(lp751
(i__main__
Node
p752
(dp753
g5
(lp754
(i__main__
Node
p755
(dp756
g5
(lp757
(i__main__
Node
p758
(dp759
g5
Nsba(i__main__
Node
p760
(dp761
g5
Nsba(i__main__
Node
p762
(dp763
g5
Nsba(i__main__
Node
p764
(dp765
g5
Nsbasba(i__main__
Node
p766
(dp767
g5
(lp768
(i__main__
Node
p769
(dp770
g5
(lp771
(i__main__
Node
p772
(dp773
g5
Nsba(i__main__
Node
p774
(dp775
g5
Nsba(i__main__
Node
p776
(dp777
g5
Nsba(i__main__
Node
p778
(dp779
g5
Nsbasba(i__main__
Node
p780
(dp781
g5
Nsba(i__main__
Node
p782
(dp783
g5
Nsba(i__main__
Node
p784
(dp785
g5
Nsbasba(i__main__
Node
p786
(dp787
g5
(lp788
(i__main__
Node
p789
(dp790
g5
Nsba(i__main__
Node
p791
(dp792
g5
Nsba(i__main__
Node
p793
(dp794
g5
Nsba(i__main__
Node
p795
(dp796
g5
Nsbasba(i__main__
Node
p797
(dp798
g5
(lp799
(i__main__
Node
p800
(dp801
g5
Nsba(i__main__
Node
p802
(dp803
g5
Nsba(i__main__
Node
p804
(dp805
g5
(lp806
(i__main__
Node
p807
(dp808
g5
Nsba(i__main__
Node
p809
(dp810
g5
Nsba(i__main__
Node
p811
(dp812
g5
Nsba(i__main__
Node
p813
(dp814
g5
Nsbasba(i__main__
Node
p815
(dp816
g5
Nsbasbasba(i__main__
Node
p817
(dp818
g5
(lp819
(i__main__
Node
p820
(dp821
g5
(lp822
(i__main__
Node
p823
(dp824
g5
Nsba(i__main__
Node
p825
(dp826
g5
Nsba(i__main__
Node
p827
(dp828
g5
Nsba(i__main__
Node
p829
(dp830
g5
Nsbasba(i__main__
Node
p831
(dp832
g5
(lp833
(i__main__
Node
p834
(dp835
g5
Nsba(i__main__
Node
p836
(dp837
g5
Nsba(i__main__
Node
p838
(dp839
g5
Nsba(i__main__
Node
p840
(dp841
g5
Nsbasba(i__main__
Node
p842
(dp843
g5
(lp844
(i__main__
Node
p845
(dp846
g5
Nsba(i__main__
Node
p847
(dp848
g5
Nsba(i__main__
Node
p849
(dp850
g5
Nsba(i__main__
Node
p851
(dp852
g5
Nsbasba(i__main__
Node
p853
(dp854
g5
(lp855
(i__main__
Node
p856
(dp857
g5
Nsba(i__main__
Node
p858
(dp859
g5
Nsba(i__main__
Node
p860
(dp861
g5
Nsba(i__main__
Node
p862
(dp863
g5
Nsbasbasba(i__main__
Node
p864
(dp865
g5
(lp866
(i__main__
Node
p867
(dp868
g5
(lp869
(i__main__
Node
p870
(dp871
g5
Nsba(i__main__
Node
p872
(dp873
g5
Nsba(i__main__
Node
p874
(dp875
g5
Nsba(i__main__
Node
p876
(dp877
g5
Nsbasba(i__main__
Node
p878
(dp879
g5
(lp880
(i__main__
Node
p881
(dp882
g5
Nsba(i__main__
Node
p883
(dp884
g5
Nsba(i__main__
Node
p885
(dp886
g5
Nsba(i__main__
Node
p887
(dp888
g5
Nsbasba(i__main__
Node
p889
(dp890
g5
(lp891
(i__main__
Node
p892
(dp893
g5
Nsba(i__main__
Node
p894
(dp895
g5
Nsba(i__main__
Node
p896
(dp897
g5
Nsba(i__main__
Node
p898
(dp899
g5
Nsbasba(i__main__
Node
p900
(dp901
g5
(lp902
(i__main__
Node
p903
(dp904
g5
Nsba(i__main__
Node
p905
(dp906
g5
Nsba(i__main__
Node
p907
(dp908
g5
Nsba(i__main__
Node
p909
(dp910
g5
Nsbasbasba(i__main__
Node
p911
(dp912
g5
(lp913
(i__main__
Node
p914
(dp915
g5
(lp916
(i__main__
Node
p917
(dp918
g5
Nsba(i__main__
Node
p919
(dp920
g5
(lp921
(i__main__
Node
p922
(dp923
g5
Nsba(i__main__
Node
p924
(dp925
g5
Nsba(i__main__
Node
p926
(dp927
g5
Nsba(i__main__
Node
p928
(dp929
g5
Nsbasba(i__main__
Node
p930
(dp931
g5
Nsba(i__main__
Node
p932
(dp933
g5
Nsbasba(i__main__
Node
p934
(dp935
g5
(lp936
(i__main__
Node
p937
(dp938
g5
Nsba(i__main__
Node
p939
(dp940
g5
Nsba(i__main__
Node
p941
(dp942
g5
Nsba(i__main__
Node
p943
(dp944
g5
Nsbasba(i__main__
Node
p945
(dp946
g5
(lp947
(i__main__
Node
p948
(dp949
g5
Nsba(i__main__
Node
p950
(dp951
g5
Nsba(i__main__
Node
p952
(dp953
g5
Nsba(i__main__
Node
p954
(dp955
g5
Nsbasba(i__main__
Node
p956
(dp957
g5
(lp958
(i__main__
Node
p959
(dp960
g5
Nsba(i__main__
Node
p961
(dp962
g5
Nsba(i__main__
Node
p963
(dp964
g5
Nsba(i__main__
Node
p965
(dp966
g5
Nsbasbasbasba(i__main__
Node
p967
(dp968
g5
Nsba(i__main__
Node
p969
(dp970
g5
(lp971
(i__main__
Node
p972
(dp973
g5
Nsba(i__main__
Node
p974
(dp975
g5
(lp976
(i__main__
Node
p977
(dp978
g5
Nsba(i__main__
Node
p979
(dp980
g5
(lp981
(i__main__
Node
p982
(dp983
g5
(lp984
(i__main__
Node
p985
(dp986
g5
Nsba(i__main__
Node
p987
(dp988
g5
Nsba(i__main__
Node
p989
(dp990
g5
Nsba(i__main__
Node
p991
(dp992
g5
Nsbasba(i__main__
Node
p993
(dp994
g5
Nsba(i__main__
Node
p995
(dp996
g5
Nsba(i__main__
Node
p997
(dp998
g5
Nsbasba(i__main__
Node
p999
(dp1000
g5
Nsba(i__main__
Node
p1001
(dp1002
g5
(lp1003
(i__main__
Node
p1004
(dp1005
g5
Nsba(i__main__
Node
p1006
(dp1007
g5
Nsba(i__main__
Node
p1008
(dp1009
g5
Nsba(i__main__
Node
p1010
(dp1011
g5
Nsbasbasba(i__main__
Node
p1012
(dp1013
g5
Nsba(i__main__
Node
p1014
(dp1015
g5
Nsbasbasba(i__main__
Node
p1016
(dp1017
g5
Nsba(i__main__
Node
p1018
(dp1019
g5
Nsbasba(i__main__
Node
p1020
(dp1021
g5
(lp1022
(i__main__
Node
p1023
(dp1024
g5
(lp1025
(i__main__
Node
p1026
(dp1027
g5
(lp1028
(i__main__
Node
p1029
(dp1030
g5
(lp1031
(i__main__
Node
p1032
(dp1033
g5
(lp1034
(i__main__
Node
p1035
(dp1036
g5
Nsba(i__main__
Node
p1037
(dp1038
g5
Nsba(i__main__
Node
p1039
(dp1040
g5
Nsba(i__main__
Node
p1041
(dp1042
g5
Nsbasba(i__main__
Node
p1043
(dp1044
g5
(lp1045
(i__main__
Node
p1046
(dp1047
g5
Nsba(i__main__
Node
p1048
(dp1049
g5
Nsba(i__main__
Node
p1050
(dp1051
g5
(lp1052
(i__main__
Node
p1053
(dp1054
g5
Nsba(i__main__
Node
p1055
(dp1056
g5
Nsba(i__main__
Node
p1057
(dp1058
g5
Nsba(i__main__
Node
p1059
(dp1060
g5
Nsbasba(i__main__
Node
p1061
(dp1062
g5
Nsbasba(i__main__
Node
p1063
(dp1064
g5
(lp1065
(i__main__
Node
p1066
(dp1067
g5
Nsba(i__main__
Node
p1068
(dp1069
g5
Nsba(i__main__
Node
p1070
(dp1071
g5
Nsba(i__main__
Node
p1072
(dp1073
g5
Nsbasba(i__main__
Node
p1074
(dp1075
g5
(lp1076
(i__main__
Node
p1077
(dp1078
g5
Nsba(i__main__
Node
p1079
(dp1080
g5
Nsba(i__main__
Node
p1081
(dp1082
g5
Nsba(i__main__
Node
p1083
(dp1084
g5
Nsbasbasba(i__main__
Node
p1085
(dp1086
g5
(lp1087
(i__main__
Node
p1088
(dp1089
g5
(lp1090
(i__main__
Node
p1091
(dp1092
g5
Nsba(i__main__
Node
p1093
(dp1094
g5
Nsba(i__main__
Node
p1095
(dp1096
g5
Nsba(i__main__
Node
p1097
(dp1098
g5
Nsbasba(i__main__
Node
p1099
(dp1100
g5
(lp1101
(i__main__
Node
p1102
(dp1103
g5
Nsba(i__main__
Node
p1104
(dp1105
g5
Nsba(i__main__
Node
p1106
(dp1107
g5
Nsba(i__main__
Node
p1108
(dp1109
g5
Nsbasba(i__main__
Node
p1110
(dp1111
g5
(lp1112
(i__main__
Node
p1113
(dp1114
g5
Nsba(i__main__
Node
p1115
(dp1116
g5
Nsba(i__main__
Node
p1117
(dp1118
g5
Nsba(i__main__
Node
p1119
(dp1120
g5
Nsbasba(i__main__
Node
p1121
(dp1122
g5
(lp1123
(i__main__
Node
p1124
(dp1125
g5
Nsba(i__main__
Node
p1126
(dp1127
g5
Nsba(i__main__
Node
p1128
(dp1129
g5
(lp1130
(i__main__
Node
p1131
(dp1132
g5
Nsba(i__main__
Node
p1133
(dp1134
g5
Nsba(i__main__
Node
p1135
(dp1136
g5
(lp1137
(i__main__
Node
p1138
(dp1139
g5
Nsba(i__main__
Node
p1140
(dp1141
g5
Nsba(i__main__
Node
p1142
(dp1143
g5
Nsba(i__main__
Node
p1144
(dp1145
g5
Nsbasba(i__main__
Node
p1146
(dp1147
g5
Nsbasba(i__main__
Node
p1148
(dp1149
g5
(lp1150
(i__main__
Node
p1151
(dp1152
g5
Nsba(i__main__
Node
p1153
(dp1154
g5
Nsba(i__main__
Node
p1155
(dp1156
g5
Nsba(i__main__
Node
p1157
(dp1158
g5
Nsbasbasbasba(i__main__
Node
p1159
(dp1160
g5
(lp1161
(i__main__
Node
p1162
(dp1163
g5
(lp1164
(i__main__
Node
p1165
(dp1166
g5
(lp1167
(i__main__
Node
p1168
(dp1169
g5
Nsba(i__main__
Node
p1170
(dp1171
g5
(lp1172
(i__main__
Node
p1173
(dp1174
g5
Nsba(i__main__
Node
p1175
(dp1176
g5
Nsba(i__main__
Node
p1177
(dp1178
g5
Nsba(i__main__
Node
p1179
(dp1180
g5
(lp1181
(i__main__
Node
p1182
(dp1183
g5
Nsba(i__main__
Node
p1184
(dp1185
g5
Nsba(i__main__
Node
p1186
(dp1187
g5
Nsba(i__main__
Node
p1188
(dp1189
g5
Nsbasbasba(i__main__
Node
p1190
(dp1191
g5
Nsba(i__main__
Node
p1192
(dp1193
g5
Nsbasba(i__main__
Node
p1194
(dp1195
g5
Nsba(i__main__
Node
p1196
(dp1197
g5
Nsba(i__main__
Node
p1198
(dp1199
g5
Nsbasba(i__main__
Node
p1200
(dp1201
g5
(lp1202
(i__main__
Node
p1203
(dp1204
g5
Nsba(i__main__
Node
p1205
(dp1206
g5
Nsba(i__main__
Node
p1207
(dp1208
g5
Nsba(i__main__
Node
p1209
(dp1210
g5
(lp1211
(i__main__
Node
p1212
(dp1213
g5
Nsba(i__main__
Node
p1214
(dp1215
g5
Nsba(i__main__
Node
p1216
(dp1217
g5
Nsba(i__main__
Node
p1218
(dp1219
g5
Nsbasbasba(i__main__
Node
p1220
(dp1221
g5
(lp1222
(i__main__
Node
p1223
(dp1224
g5
Nsba(i__main__
Node
p1225
(dp1226
g5
Nsba(i__main__
Node
p1227
(dp1228
g5
(lp1229
(i__main__
Node
p1230
(dp1231
g5
Nsba(i__main__
Node
p1232
(dp1233
g5
Nsba(i__main__
Node
p1234
(dp1235
g5
Nsba(i__main__
Node
p1236
(dp1237
g5
Nsbasba(i__main__
Node
p1238
(dp1239
g5
Nsbasba(i__main__
Node
p1240
(dp1241
g5
(lp1242
(i__main__
Node
p1243
(dp1244
g5
Nsba(i__main__
Node
p1245
(dp1246
g5
Nsba(i__main__
Node
p1247
(dp1248
g5
(lp1249
(i__main__
Node
p1250
(dp1251
g5
Nsba(i__main__
Node
p1252
(dp1253
g5
Nsba(i__main__
Node
p1254
(dp1255
g5
Nsba(i__main__
Node
p1256
(dp1257
g5
Nsbasba(i__main__
Node
p1258
(dp1259
g5
Nsbasbasba(i__main__
Node
p1260
(dp1261
g5
(lp1262
(i__main__
Node
p1263
(dp1264
g5
(lp1265
(i__main__
Node
p1266
(dp1267
g5
Nsba(i__main__
Node
p1268
(dp1269
g5
(lp1270
(i__main__
Node
p1271
(dp1272
g5
Nsba(i__main__
Node
p1273
(dp1274
g5
Nsba(i__main__
Node
p1275
(dp1276
g5
Nsba(i__main__
Node
p1277
(dp1278
g5
Nsbasba(i__main__
Node
p1279
(dp1280
g5
Nsba(i__main__
Node
p1281
(dp1282
g5
(lp1283
(i__main__
Node
p1284
(dp1285
g5
Nsba(i__main__
Node
p1286
(dp1287
g5
(lp1288
(i__main__
Node
p1289
(dp1290
g5
Nsba(i__main__
Node
p1291
(dp1292
g5
Nsba(i__main__
Node
p1293
(dp1294
g5
Nsba(i__main__
Node
p1295
(dp1296
g5
(lp1297
(i__main__
Node
p1298
(dp1299
g5
Nsba(i__main__
Node
p1300
(dp1301
g5
Nsba(i__main__
Node
p1302
(dp1303
g5
Nsba(i__main__
Node
p1304
(dp1305
g5
Nsbasbasba(i__main__
Node
p1306
(dp1307
g5
Nsba(i__main__
Node
p1308
(dp1309
g5
Nsbasbasba(i__main__
Node
p1310
(dp1311
g5
(lp1312
(i__main__
Node
p1313
(dp1314
g5
Nsba(i__main__
Node
p1315
(dp1316
g5
(lp1317
(i__main__
Node
p1318
(dp1319
g5
Nsba(i__main__
Node
p1320
(dp1321
g5
Nsba(i__main__
Node
p1322
(dp1323
g5
Nsba(i__main__
Node
p1324
(dp1325
g5
Nsbasba(i__main__
Node
p1326
(dp1327
g5
Nsba(i__main__
Node
p1328
(dp1329
g5
Nsbasba(i__main__
Node
p1330
(dp1331
g5
(lp1332
(i__main__
Node
p1333
(dp1334
g5
Nsba(i__main__
Node
p1335
(dp1336
g5
Nsba(i__main__
Node
p1337
(dp1338
g5
Nsba(i__main__
Node
p1339
(dp1340
g5
Nsbasba(i__main__
Node
p1341
(dp1342
g5
(lp1343
(i__main__
Node
p1344
(dp1345
g5
Nsba(i__main__
Node
p1346
(dp1347
g5
Nsba(i__main__
Node
p1348
(dp1349
g5
Nsba(i__main__
Node
p1350
(dp1351
g5
Nsbasbasbasba(i__main__
Node
p1352
(dp1353
g5
(lp1354
(i__main__
Node
p1355
(dp1356
g5
(lp1357
(i__main__
Node
p1358
(dp1359
g5
(lp1360
(i__main__
Node
p1361
(dp1362
g5
Nsba(i__main__
Node
p1363
(dp1364
g5
Nsba(i__main__
Node
p1365
(dp1366
g5
Nsba(i__main__
Node
p1367
(dp1368
g5
(lp1369
(i__main__
Node
p1370
(dp1371
g5
Nsba(i__main__
Node
p1372
(dp1373
g5
Nsba(i__main__
Node
p1374
(dp1375
g5
Nsba(i__main__
Node
p1376
(dp1377
g5
Nsbasbasba(i__main__
Node
p1378
(dp1379
g5
(lp1380
(i__main__
Node
p1381
(dp1382
g5
Nsba(i__main__
Node
p1383
(dp1384
g5
Nsba(i__main__
Node
p1385
(dp1386
g5
Nsba(i__main__
Node
p1387
(dp1388
g5
Nsbasba(i__main__
Node
p1389
(dp1390
g5
(lp1391
(i__main__
Node
p1392
(dp1393
g5
Nsba(i__main__
Node
p1394
(dp1395
g5
Nsba(i__main__
Node
p1396
(dp1397
g5
Nsba(i__main__
Node
p1398
(dp1399
g5
Nsbasba(i__main__
Node
p1400
(dp1401
g5
(lp1402
(i__main__
Node
p1403
(dp1404
g5
Nsba(i__main__
Node
p1405
(dp1406
g5
Nsba(i__main__
Node
p1407
(dp1408
g5
Nsba(i__main__
Node
p1409
(dp1410
g5
Nsbasbasba(i__main__
Node
p1411
(dp1412
g5
(lp1413
(i__main__
Node
p1414
(dp1415
g5
(lp1416
(i__main__
Node
p1417
(dp1418
g5
Nsba(i__main__
Node
p1419
(dp1420
g5
Nsba(i__main__
Node
p1421
(dp1422
g5
Nsba(i__main__
Node
p1423
(dp1424
g5
Nsbasba(i__main__
Node
p1425
(dp1426
g5
(lp1427
(i__main__
Node
p1428
(dp1429
g5
Nsba(i__main__
Node
p1430
(dp1431
g5
Nsba(i__main__
Node
p1432
(dp1433
g5
Nsba(i__main__
Node
p1434
(dp1435
g5
Nsbasba(i__main__
Node
p1436
(dp1437
g5
(lp1438
(i__main__
Node
p1439
(dp1440
g5
Nsba(i__main__
Node
p1441
(dp1442
g5
Nsba(i__main__
Node
p1443
(dp1444
g5
Nsba(i__main__
Node
p1445
(dp1446
g5
(lp1447
(i__main__
Node
p1448
(dp1449
g5
Nsba(i__main__
Node
p1450
(dp1451
g5
Nsba(i__main__
Node
p1452
(dp1453
g5
Nsba(i__main__
Node
p1454
(dp1455
g5
Nsbasbasba(i__main__
Node
p1456
(dp1457
g5
(lp1458
(i__main__
Node
p1459
(dp1460
g5
Nsba(i__main__
Node
p1461
(dp1462
g5
Nsba(i__main__
Node
p1463
(dp1464
g5
(lp1465
(i__main__
Node
p1466
(dp1467
g5
Nsba(i__main__
Node
p1468
(dp1469
g5
Nsba(i__main__
Node
p1470
(dp1471
g5
Nsba(i__main__
Node
p1472
(dp1473
g5
Nsbasba(i__main__
Node
p1474
(dp1475
g5
Nsbasbasba(i__main__
Node
p1476
(dp1477
g5
(lp1478
(i__main__
Node
p1479
(dp1480
g5
(lp1481
(i__main__
Node
p1482
(dp1483
g5
Nsba(i__main__
Node
p1484
(dp1485
g5
(lp1486
(i__main__
Node
p1487
(dp1488
g5
Nsba(i__main__
Node
p1489
(dp1490
g5
Nsba(i__main__
Node
p1491
(dp1492
g5
Nsba(i__main__
Node
p1493
(dp1494
g5
Nsbasba(i__main__
Node
p1495
(dp1496
g5
Nsba(i__main__
Node
p1497
(dp1498
g5
Nsbasba(i__main__
Node
p1499
(dp1500
g5
(lp1501
(i__main__
Node
p1502
(dp1503
g5
Nsba(i__main__
Node
p1504
(dp1505
g5
Nsba(i__main__
Node
p1506
(dp1507
g5
(lp1508
(i__main__
Node
p1509
(dp1510
g5
Nsba(i__main__
Node
p1511
(dp1512
g5
Nsba(i__main__
Node
p1513
(dp1514
g5
Nsba(i__main__
Node
p1515
(dp1516
g5
(lp1517
(i__main__
Node
p1518
(dp1519
g5
Nsba(i__main__
Node
p1520
(dp1521
g5
Nsba(i__main__
Node
p1522
(dp1523
g5
Nsba(i__main__
Node
p1524
(dp1525
g5
Nsbasbasba(i__main__
Node
p1526
(dp1527
g5
Nsbasba(i__main__
Node
p1528
(dp1529
g5
(lp1530
(i__main__
Node
p1531
(dp1532
g5
Nsba(i__main__
Node
p1533
(dp1534
g5
Nsba(i__main__
Node
p1535
(dp1536
g5
Nsba(i__main__
Node
p1537
(dp1538
g5
Nsbasba(i__main__
Node
p1539
(dp1540
g5
(lp1541
(i__main__
Node
p1542
(dp1543
g5
Nsba(i__main__
Node
p1544
(dp1545
g5
Nsba(i__main__
Node
p1546
(dp1547
g5
(lp1548
(i__main__
Node
p1549
(dp1550
g5
Nsba(i__main__
Node
p1551
(dp1552
g5
Nsba(i__main__
Node
p1553
(dp1554
g5
Nsba(i__main__
Node
p1555
(dp1556
g5
Nsbasba(i__main__
Node
p1557
(dp1558
g5
Nsbasbasba(i__main__
Node
p1559
(dp1560
g5
(lp1561
(i__main__
Node
p1562
(dp1563
g5
(lp1564
(i__main__
Node
p1565
(dp1566
g5
Nsba(i__main__
Node
p1567
(dp1568
g5
Nsba(i__main__
Node
p1569
(dp1570
g5
Nsba(i__main__
Node
p1571
(dp1572
g5
Nsbasba(i__main__
Node
p1573
(dp1574
g5
(lp1575
(i__main__
Node
p1576
(dp1577
g5
Nsba(i__main__
Node
p1578
(dp1579
g5
Nsba(i__main__
Node
p1580
(dp1581
g5
Nsba(i__main__
Node
p1582
(dp1583
g5
Nsbasba(i__main__
Node
p1584
(dp1585
g5
(lp1586
(i__main__
Node
p1587
(dp1588
g5
Nsba(i__main__
Node
p1589
(dp1590
g5
Nsba(i__main__
Node
p1591
(dp1592
g5
(lp1593
(i__main__
Node
p1594
(dp1595
g5
Nsba(i__main__
Node
p1596
(dp1597
g5
(lp1598
(i__main__
Node
p1599
(dp1600
g5
Nsba(i__main__
Node
p1601
(dp1602
g5
Nsba(i__main__
Node
p1603
(dp1604
g5
Nsba(i__main__
Node
p1605
(dp1606
g5
Nsbasba(i__main__
Node
p1607
(dp1608
g5
(lp1609
(i__main__
Node
p1610
(dp1611
g5
Nsba(i__main__
Node
p1612
(dp1613
g5
Nsba(i__main__
Node
p1614
(dp1615
g5
Nsba(i__main__
Node
p1616
(dp1617
g5
Nsbasba(i__main__
Node
p1618
(dp1619
g5
Nsbasba(i__main__
Node
p1620
(dp1621
g5
Nsbasba(i__main__
Node
p1622
(dp1623
g5
(lp1624
(i__main__
Node
p1625
(dp1626
g5
Nsba(i__main__
Node
p1627
(dp1628
g5
Nsba(i__main__
Node
p1629
(dp1630
g5
Nsba(i__main__
Node
p1631
(dp1632
g5
Nsbasbasbasba(i__main__
Node
p1633
(dp1634
g5
(lp1635
(i__main__
Node
p1636
(dp1637
g5
(lp1638
(i__main__
Node
p1639
(dp1640
g5
(lp1641
(i__main__
Node
p1642
(dp1643
g5
Nsba(i__main__
Node
p1644
(dp1645
g5
Nsba(i__main__
Node
p1646
(dp1647
g5
Nsba(i__main__
Node
p1648
(dp1649
g5
Nsbasba(i__main__
Node
p1650
(dp1651
g5
(lp1652
(i__main__
Node
p1653
(dp1654
g5
Nsba(i__main__
Node
p1655
(dp1656
g5
Nsba(i__main__
Node
p1657
(dp1658
g5
Nsba(i__main__
Node
p1659
(dp1660
g5
Nsbasba(i__main__
Node
p1661
(dp1662
g5
(lp1663
(i__main__
Node
p1664
(dp1665
g5
Nsba(i__main__
Node
p1666
(dp1667
g5
Nsba(i__main__
Node
p1668
(dp1669
g5
Nsba(i__main__
Node
p1670
(dp1671
g5
Nsbasba(i__main__
Node
p1672
(dp1673
g5
(lp1674
(i__main__
Node
p1675
(dp1676
g5
Nsba(i__main__
Node
p1677
(dp1678
g5
Nsba(i__main__
Node
p1679
(dp1680
g5
Nsba(i__main__
Node
p1681
(dp1682
g5
Nsbasbasba(i__main__
Node
p1683
(dp1684
g5
(lp1685
(i__main__
Node
p1686
(dp1687
g5
(lp1688
(i__main__
Node
p1689
(dp1690
g5
Nsba(i__main__
Node
p1691
(dp1692
g5
Nsba(i__main__
Node
p1693
(dp1694
g5
(lp1695
(i__main__
Node
p1696
(dp1697
g5
Nsba(i__main__
Node
p1698
(dp1699
g5
Nsba(i__main__
Node
p1700
(dp1701
g5
(lp1702
(i__main__
Node
p1703
(dp1704
g5
Nsba(i__main__
Node
p1705
(dp1706
g5
Nsba(i__main__
Node
p1707
(dp1708
g5
Nsba(i__main__
Node
p1709
(dp1710
g5
Nsbasba(i__main__
Node
p1711
(dp1712
g5
Nsbasba(i__main__
Node
p1713
(dp1714
g5
Nsbasba(i__main__
Node
p1715
(dp1716
g5
(lp1717
(i__main__
Node
p1718
(dp1719
g5
Nsba(i__main__
Node
p1720
(dp1721
g5
Nsba(i__main__
Node
p1722
(dp1723
g5
Nsba(i__main__
Node
p1724
(dp1725
g5
Nsbasba(i__main__
Node
p1726
(dp1727
g5
(lp1728
(i__main__
Node
p1729
(dp1730
g5
Nsba(i__main__
Node
p1731
(dp1732
g5
Nsba(i__main__
Node
p1733
(dp1734
g5
Nsba(i__main__
Node
p1735
(dp1736
g5
Nsbasba(i__main__
Node
p1737
(dp1738
g5
(lp1739
(i__main__
Node
p1740
(dp1741
g5
Nsba(i__main__
Node
p1742
(dp1743
g5
Nsba(i__main__
Node
p1744
(dp1745
g5
Nsba(i__main__
Node
p1746
(dp1747
g5
Nsbasbasba(i__main__
Node
p1748
(dp1749
g5
(lp1750
(i__main__
Node
p1751
(dp1752
g5
(lp1753
(i__main__
Node
p1754
(dp1755
g5
Nsba(i__main__
Node
p1756
(dp1757
g5
Nsba(i__main__
Node
p1758
(dp1759
g5
Nsba(i__main__
Node
p1760
(dp1761
g5
Nsbasba(i__main__
Node
p1762
(dp1763
g5
Nsba(i__main__
Node
p1764
(dp1765
g5
(lp1766
(i__main__
Node
p1767
(dp1768
g5
Nsba(i__main__
Node
p1769
(dp1770
g5
Nsba(i__main__
Node
p1771
(dp1772
g5
Nsba(i__main__
Node
p1773
(dp1774
g5
Nsbasba(i__main__
Node
p1775
(dp1776
g5
(lp1777
(i__main__
Node
p1778
(dp1779
g5
Nsba(i__main__
Node
p1780
(dp1781
g5
Nsba(i__main__
Node
p1782
(dp1783
g5
Nsba(i__main__
Node
p1784
(dp1785
g5
Nsbasbasba(i__main__
Node
p1786
(dp1787
g5
(lp1788
(i__main__
Node
p1789
(dp1790
g5
Nsba(i__main__
Node
p1791
(dp1792
g5
Nsba(i__main__
Node
p1793
(dp1794
g5
(lp1795
(i__main__
Node
p1796
(dp1797
g5
Nsba(i__main__
Node
p1798
(dp1799
g5
Nsba(i__main__
Node
p1800
(dp1801
g5
Nsba(i__main__
Node
p1802
(dp1803
g5
Nsbasba(i__main__
Node
p1804
(dp1805
g5
(lp1806
(i__main__
Node
p1807
(dp1808
g5
Nsba(i__main__
Node
p1809
(dp1810
g5
Nsba(i__main__
Node
p1811
(dp1812
g5
Nsba(i__main__
Node
p1813
(dp1814
g5
Nsbasbasbasba(i__main__
Node
p1815
(dp1816
g5
(lp1817
(i__main__
Node
p1818
(dp1819
g5
(lp1820
(i__main__
Node
p1821
(dp1822
g5
(lp1823
(i__main__
Node
p1824
(dp1825
g5
Nsba(i__main__
Node
p1826
(dp1827
g5
Nsba(i__main__
Node
p1828
(dp1829
g5
(lp1830
(i__main__
Node
p1831
(dp1832
g5
Nsba(i__main__
Node
p1833
(dp1834
g5
Nsba(i__main__
Node
p1835
(dp1836
g5
(lp1837
(i__main__
Node
p1838
(dp1839
g5
Nsba(i__main__
Node
p1840
(dp1841
g5
Nsba(i__main__
Node
p1842
(dp1843
g5
Nsba(i__main__
Node
p1844
(dp1845
g5
Nsbasba(i__main__
Node
p1846
(dp1847
g5
Nsbasba(i__main__
Node
p1848
(dp1849
g5
Nsbasba(i__main__
Node
p1850
(dp1851
g5
(lp1852
(i__main__
Node
p1853
(dp1854
g5
Nsba(i__main__
Node
p1855
(dp1856
g5
Nsba(i__main__
Node
p1857
(dp1858
g5
Nsba(i__main__
Node
p1859
(dp1860
g5
Nsbasba(i__main__
Node
p1861
(dp1862
g5
(lp1863
(i__main__
Node
p1864
(dp1865
g5
(lp1866
(i__main__
Node
p1867
(dp1868
g5
Nsba(i__main__
Node
p1869
(dp1870
g5
Nsba(i__main__
Node
p1871
(dp1872
g5
Nsba(i__main__
Node
p1873
(dp1874
g5
Nsbasba(i__main__
Node
p1875
(dp1876
g5
Nsba(i__main__
Node
p1877
(dp1878
g5
Nsba(i__main__
Node
p1879
(dp1880
g5
Nsbasba(i__main__
Node
p1881
(dp1882
g5
(lp1883
(i__main__
Node
p1884
(dp1885
g5
(lp1886
(i__main__
Node
p1887
(dp1888
g5
Nsba(i__main__
Node
p1889
(dp1890
g5
Nsba(i__main__
Node
p1891
(dp1892
g5
Nsba(i__main__
Node
p1893
(dp1894
g5
Nsbasba(i__main__
Node
p1895
(dp1896
g5
Nsba(i__main__
Node
p1897
(dp1898
g5
Nsba(i__main__
Node
p1899
(dp1900
g5
Nsbasbasba(i__main__
Node
p1901
(dp1902
g5
(lp1903
(i__main__
Node
p1904
(dp1905
g5
(lp1906
(i__main__
Node
p1907
(dp1908
g5
Nsba(i__main__
Node
p1909
(dp1910
g5
Nsba(i__main__
Node
p1911
(dp1912
g5
(lp1913
(i__main__
Node
p1914
(dp1915
g5
Nsba(i__main__
Node
p1916
(dp1917
g5
Nsba(i__main__
Node
p1918
(dp1919
g5
Nsba(i__main__
Node
p1920
(dp1921
g5
Nsbasba(i__main__
Node
p1922
(dp1923
g5
Nsbasba(i__main__
Node
p1924
(dp1925
g5
(lp1926
(i__main__
Node
p1927
(dp1928
g5
Nsba(i__main__
Node
p1929
(dp1930
g5
Nsba(i__main__
Node
p1931
(dp1932
g5
Nsba(i__main__
Node
p1933
(dp1934
g5
Nsbasba(i__main__
Node
p1935
(dp1936
g5
(lp1937
(i__main__
Node
p1938
(dp1939
g5
Nsba(i__main__
Node
p1940
(dp1941
g5
(lp1942
(i__main__
Node
p1943
(dp1944
g5
Nsba(i__main__
Node
p1945
(dp1946
g5
Nsba(i__main__
Node
p1947
(dp1948
g5
Nsba(i__main__
Node
p1949
(dp1950
g5
Nsbasba(i__main__
Node
p1951
(dp1952
g5
Nsba(i__main__
Node
p1953
(dp1954
g5
Nsbasba(i__main__
Node
p1955
(dp1956
g5
(lp1957
(i__main__
Node
p1958
(dp1959
g5
Nsba(i__main__
Node
p1960
(dp1961
g5
Nsba(i__main__
Node
p1962
(dp1963
g5
Nsba(i__main__
Node
p1964
(dp1965
g5
Nsbasbasba(i__main__
Node
p1966
(dp1967
g5
(lp1968
(i__main__
Node
p1969
(dp1970
g5
Nsba(i__main__
Node
p1971
(dp1972
g5
Nsba(i__main__
Node
p1973
(dp1974
g5
(lp1975
(i__main__
Node
p1976
(dp1977
g5
Nsba(i__main__
Node
p1978
(dp1979
g5
Nsba(i__main__
Node
p1980
(dp1981
g5
Nsba(i__main__
Node
p1982
(dp1983
g5
Nsbasba(i__main__
Node
p1984
(dp1985
g5
(lp1986
(i__main__
Node
p1987
(dp1988
g5
Nsba(i__main__
Node
p1989
(dp1990
g5
Nsba(i__main__
Node
p1991
(dp1992
g5
Nsba(i__main__
Node
p1993
(dp1994
g5
Nsbasbasba(i__main__
Node
p1995
(dp1996
g5
(lp1997
(i__main__
Node
p1998
(dp1999
g5
Nsba(i__main__
Node
p2000
(dp2001
g5
(lp2002
(i__main__
Node
p2003
(dp2004
g5
Nsba(i__main__
Node
p2005
(dp2006
g5
Nsba(i__main__
Node
p2007
(dp2008
g5
Nsba(i__main__
Node
p2009
(dp2010
g5
Nsbasba(i__main__
Node
p2011
(dp2012
g5
(lp2013
(i__main__
Node
p2014
(dp2015
g5
Nsba(i__main__
Node
p2016
(dp2017
g5
Nsba(i__main__
Node
p2018
(dp2019
g5
Nsba(i__main__
Node
p2020
(dp2021
g5
Nsbasba(i__main__
Node
p2022
(dp2023
g5
(lp2024
(i__main__
Node
p2025
(dp2026
g5
Nsba(i__main__
Node
p2027
(dp2028
g5
Nsba(i__main__
Node
p2029
(dp2030
g5
Nsba(i__main__
Node
p2031
(dp2032
g5
Nsbasbasbasbasba(i__main__
Node
p2033
(dp2034
g5
Nsba(i__main__
Node
p2035
(dp2036
g5
Nsba(i__main__
Node
p2037
(dp2038
g5
Nsbasba(i__main__
Node
p2039
(dp2040
g5
Nsba(i__main__
Node
p2041
(dp2042
g5
(lp2043
(i__main__
Node
p2044
(dp2045
g5
(lp2046
(i__main__
Node
p2047
(dp2048
g5
Nsba(i__main__
Node
p2049
(dp2050
g5
(lp2051
(i__main__
Node
p2052
(dp2053
g5
Nsba(i__main__
Node
p2054
(dp2055
g5
Nsba(i__main__
Node
p2056
(dp2057
g5
Nsba(i__main__
Node
p2058
(dp2059
g5
Nsbasba(i__main__
Node
p2060
(dp2061
g5
Nsba(i__main__
Node
p2062
(dp2063
g5
Nsbasba(i__main__
Node
p2064
(dp2065
g5
Nsba(i__main__
Node
p2066
(dp2067
g5
Nsba(i__main__
Node
p2068
(dp2069
g5
Nsbasbasba(i__main__
Node
p2070
(dp2071
g5
Nsba(i__main__
Node
p2072
(dp2073
g5
Nsba(i__main__
Node
p2074
(dp2075
g5
Nsbasbsb.